; Function Attrs: nounwind uwtable
define dso_local void @bf_set_inf(ptr noundef captures(none) initializes((8, 12), (16, 24)) %0, i32 noundef %1) local_unnamed_addr #2 {
  %3 = getelementptr inbounds nuw i8, ptr %0, i64 24
  %4 = load i64, ptr %3, align 8, !tbaa !32
  %.not.i = icmp eq i64 %4, 0
  br i1 %.not.i, label %bf_resize.exit, label %5

5:                                                ; preds = %2
  %6 = load ptr, ptr %0, align 8, !tbaa !28
  %7 = getelementptr inbounds nuw i8, ptr %0, i64 32
  %8 = load ptr, ptr %7, align 8, !tbaa !29
  %.val.i = load ptr, ptr %6, align 8, !tbaa !19
  %9 = getelementptr i8, ptr %6, i64 8
  %.val13.i = load ptr, ptr %9, align 8, !tbaa !7
  %10 = tail call ptr %.val13.i(ptr noundef %.val.i, ptr noundef %8, i64 noundef 0) #21
  store ptr %10, ptr %7, align 8, !tbaa !29
  store i64 0, ptr %3, align 8, !tbaa !32
  br label %bf_resize.exit

bf_resize.exit:                                   ; preds = %2, %5
  %11 = getelementptr inbounds nuw i8, ptr %0, i64 16
  store i64 9223372036854775806, ptr %11, align 8, !tbaa !31
  %12 = getelementptr inbounds nuw i8, ptr %0, i64 8
  store i32 %1, ptr %12, align 8, !tbaa !30
  ret void
}